target datalayout = "e-m:e-p270:32:32-p271:32:32-p272:64:64-i64:64-i128:128-f80:128-n8:16:32:64-S128"
target triple = "x86_64-pc-linux-gnu"

%union.pthread_mutex_t = type { %struct.__pthread_mutex_s }
%struct.__pthread_mutex_s = type { i32, i32, i32, i32, i32, i16, i16, %struct.__pthread_internal_list }
%struct.__pthread_internal_list = type { ptr, ptr }
%struct.slurm_conf_t = type { i64, ptr, i16, ptr, ptr, ptr, ptr, ptr, i16, ptr, ptr, ptr, ptr, ptr, ptr, ptr, i16, ptr, ptr, ptr, ptr, i16, ptr, ptr, ptr, i64, ptr, ptr, ptr, ptr, i16, ptr, ptr, i16, i32, ptr, i32, ptr, i32, i32, ptr, ptr, i64, i64, ptr, i16, i16, ptr, i32, i32, ptr, i32, ptr, i32, i16, i16, i16, ptr, i16, i16, ptr, ptr, i32, i16, i16, ptr, i32, i16, ptr, ptr, ptr, ptr, i16, ptr, ptr, ptr, ptr, i32, ptr, ptr, ptr, ptr, i16, i16, ptr, i32, i32, i32, i16, i16, ptr, ptr, i16, ptr, ptr, i32, i32, i32, i32, i32, i64, i32, i32, i16, ptr, ptr, i32, ptr, ptr, ptr, i16, i32, ptr, ptr, i16, ptr, ptr, i32, i16, ptr, ptr, ptr, ptr, i32, i32, i16, i16, i32, ptr, i16, ptr, i32, i32, i32, i32, i32, i32, ptr, i16, ptr, ptr, i32, i16, ptr, i32, i16, i16, ptr, ptr, ptr, i16, ptr, ptr, ptr, ptr, i16, i16, ptr, i16, ptr, i16, ptr, i16, ptr, i16, ptr, ptr, ptr, ptr, i16, ptr, ptr, ptr, i32, ptr, i32, ptr, ptr, i16, ptr, ptr, i32, i16, ptr, ptr, i16, i16, ptr, i16, ptr, ptr, ptr, i32, ptr, i16, i16, ptr, ptr, ptr, ptr, ptr, ptr, ptr, ptr, i16, i32, i16, ptr, ptr, ptr, ptr, i32, ptr, ptr, ptr, i16, ptr, ptr, ptr, i16, ptr, i16, ptr, i16, i16, ptr }
%struct.job_record = type { i32, ptr, ptr, ptr, ptr, i16, i32, i32, i32, ptr, i32, ptr, ptr, i16, ptr, double, i64, ptr, ptr, ptr, ptr, ptr, ptr, i32, ptr, i32, i64, i64, i32, i32, ptr, i16, i64, i64, i8, i32, ptr, ptr, ptr, ptr, ptr, ptr, ptr, ptr, i32, ptr, ptr, i32, ptr, i32, ptr, i32, ptr, i32, ptr, ptr, ptr, ptr, ptr, ptr, i32, i16, i64, ptr, ptr, ptr, ptr, %struct.acct_policy_limit_set_t, i16, ptr, ptr, ptr, ptr, ptr, i32, ptr, ptr, ptr, ptr, ptr, i32, i32, ptr, ptr, ptr, i16, ptr, ptr, i8, ptr, ptr, i64, i64, i8, i32, i32, i8, i32, ptr, i32, i64, i32, ptr, ptr, ptr, i8, i16, i64, i32, ptr, ptr, ptr, ptr, ptr, i16, i32, ptr, ptr, ptr, ptr, i32, ptr, i32, i16, i64, ptr, i32, i32, ptr, i64, ptr, ptr, i64, i32, i32, i64, i32, i32, ptr, ptr, ptr, ptr, ptr, ptr, ptr, ptr, ptr, ptr, ptr, ptr, i32, ptr, i16, i16, i16, i16, ptr, i32, i32, i8, i64 }
%struct.acct_policy_limit_set_t = type { i16, i16, ptr }
%struct.job_fed_details_t = type { i32, ptr, i64, ptr, i64, ptr }
%struct.slurmdb_federation_rec_t = type { ptr, i32, ptr }
%struct.slurmdb_cluster_rec = type { ptr, i16, i64, %struct.sockaddr_storage, ptr, i32, i16, ptr, i16, %struct.slurmdb_cluster_fed_t, i32, %union.pthread_mutex_t, ptr, ptr, ptr, i16, ptr, ptr }
%struct.sockaddr_storage = type { i16, [118 x i8], i64 }
%struct.slurmdb_cluster_fed_t = type { ptr, i32, ptr, ptr, ptr, i32, i8, i8 }
%struct.persist_conn_t = type { ptr, i32, i32, i8, ptr, ptr, ptr, i64, i16, i32, i16, i8, i32, i32, ptr, i16, ptr, i64, i32, ptr, %struct.slurm_trigger_callbacks_t, i16 }
%struct.slurm_trigger_callbacks_t = type { ptr, ptr, ptr, ptr, ptr }

@fed_mgr_fed_rec = dso_local global ptr null, align 8
@fed_mgr_cluster_rec = dso_local global ptr null, align 8
@slurm_conf = external global %struct.slurm_conf_t, align 8
@.str.62 = private unnamed_addr constant [38 x i8] c"FEDR: cancel fed %pJ by local cluster\00", align 1
@.str.183 = private unnamed_addr constant [28 x i8] c"job %pJ not a federated job\00", align 1
@.str.186 = private unnamed_addr constant [35 x i8] c"couldn't find cluster rec by id %d\00", align 1

; Function Attrs: nounwind uwtable
define dso_local ptr @fed_mgr_get_cluster_by_id(i32 noundef %0) #0 {
  %2 = alloca i32, align 4
  %3 = alloca i32, align 4
  store i32 %0, ptr %2, align 4
  call void @llvm.lifetime.start.p0(i64 4, ptr %3) #9
  %4 = load i32, ptr %2, align 4
  store i32 %4, ptr %3, align 4
  %5 = load ptr, ptr @fed_mgr_fed_rec, align 8
  %6 = getelementptr inbounds nuw %struct.slurmdb_federation_rec_t, ptr %5, i32 0, i32 2
  %7 = load ptr, ptr %6, align 8
  %8 = call ptr @list_find_first(ptr noundef %7, ptr noundef @_find_sibling_by_id, ptr noundef %3)
  call void @llvm.lifetime.end.p0(i64 4, ptr %3) #9
  ret ptr %8
}

; Function Attrs: nounwind uwtable
define dso_local i32 @fed_mgr_get_cluster_id(i32 noundef %0) #0 {
  %2 = alloca i32, align 4
  store i32 %0, ptr %2, align 4
  %3 = load i32, ptr %2, align 4
  %4 = lshr i32 %3, 26
  ret i32 %4
}

; Function Attrs: nounwind uwtable
define internal i32 @_cancel_sibling_jobs(ptr noundef %0, i16 noundef zeroext %1, i16 noundef zeroext %2, i32 noundef %3, i1 noundef zeroext %4) #0 {
  %6 = alloca i32, align 4
  %7 = alloca ptr, align 8
  %8 = alloca i16, align 2
  %9 = alloca i16, align 2
  %10 = alloca i32, align 4
  %11 = alloca i8, align 1
  %12 = alloca i32, align 4
  %13 = alloca i64, align 8
  %14 = alloca ptr, align 8
  %15 = alloca ptr, align 8
  %16 = alloca i32, align 4
  store ptr %0, ptr %7, align 8
  store i16 %1, ptr %8, align 2
  store i16 %2, ptr %9, align 2
  store i32 %3, ptr %10, align 4
  %17 = zext i1 %4 to i8
  store i8 %17, ptr %11, align 1
  call void @llvm.lifetime.start.p0(i64 4, ptr %12) #9
  store i32 1, ptr %12, align 4
  call void @llvm.lifetime.start.p0(i64 8, ptr %13) #9
  call void @llvm.lifetime.start.p0(i64 8, ptr %14) #9
  %18 = load i8, ptr %11, align 1, !range !11, !noundef !12
  %19 = trunc i8 %18 to i1
  br i1 %19, label %20, label %30

20:                                               ; preds = %5
  %21 = load ptr, ptr %7, align 8
  %22 = getelementptr inbounds nuw %struct.job_record, ptr %21, i32 0, i32 39
  %23 = load ptr, ptr %22, align 8
  %24 = getelementptr inbounds nuw %struct.job_fed_details_t, ptr %23, i32 0, i32 4
  %25 = load i64, ptr %24, align 8
  store i64 %25, ptr %13, align 8
  %26 = load i16, ptr %9, align 2
  %27 = zext i16 %26 to i64
  %28 = or i64 %27, 128
  %29 = trunc i64 %28 to i16
  store i16 %29, ptr %9, align 2
  br label %40

30:                                               ; preds = %5
  %31 = load ptr, ptr %7, align 8
  %32 = getelementptr inbounds nuw %struct.job_record, ptr %31, i32 0, i32 39
  %33 = load ptr, ptr %32, align 8
  %34 = getelementptr inbounds nuw %struct.job_fed_details_t, ptr %33, i32 0, i32 2
  %35 = load i64, ptr %34, align 8
  store i64 %35, ptr %13, align 8
  %36 = load i16, ptr %9, align 2
  %37 = zext i16 %36 to i64
  %38 = and i64 %37, -129
  %39 = trunc i64 %38 to i16
  store i16 %39, ptr %9, align 2
  br label %40

40:                                               ; preds = %30, %20
  br label %41

41:                                               ; preds = %92, %40
  %42 = load i64, ptr %13, align 8
  %43 = icmp ne i64 %42, 0
  br i1 %43, label %44, label %97

44:                                               ; preds = %41
  %45 = load i64, ptr %13, align 8
  %46 = and i64 %45, 1
  %47 = icmp ne i64 %46, 0
  br i1 %47, label %48, label %91

48:                                               ; preds = %44
  %49 = load i32, ptr %12, align 4
  %50 = load ptr, ptr @fed_mgr_cluster_rec, align 8
  %51 = getelementptr inbounds nuw %struct.slurmdb_cluster_rec, ptr %50, i32 0, i32 9
  %52 = getelementptr inbounds nuw %struct.slurmdb_cluster_fed_t, ptr %51, i32 0, i32 1
  %53 = load i32, ptr %52, align 8
  %54 = icmp ne i32 %49, %53
  br i1 %54, label %55, label %91

55:                                               ; preds = %48
  call void @llvm.lifetime.start.p0(i64 8, ptr %15) #9
  %56 = load i32, ptr %12, align 4
  %57 = call ptr @fed_mgr_get_cluster_by_id(i32 noundef %56)
  store ptr %57, ptr %15, align 8
  %58 = load ptr, ptr %15, align 8
  %59 = icmp ne ptr %58, null
  br i1 %59, label %63, label %60

60:                                               ; preds = %55
  %61 = load i32, ptr %12, align 4
  %62 = call i32 (ptr, ...) @error(ptr noundef @.str.186, i32 noundef %61)
  store i32 4, ptr %16, align 4
  br label %88

63:                                               ; preds = %55
  %64 = load ptr, ptr %15, align 8
  %65 = getelementptr inbounds nuw %struct.slurmdb_cluster_rec, ptr %64, i32 0, i32 9
  %66 = getelementptr inbounds nuw %struct.slurmdb_cluster_fed_t, ptr %65, i32 0, i32 4
  %67 = load ptr, ptr %66, align 8
  store ptr %67, ptr %14, align 8
  %68 = load i8, ptr %11, align 1, !range !11, !noundef !12
  %69 = trunc i8 %68 to i1
  br i1 %69, label %70, label %79

70:                                               ; preds = %63
  %71 = load ptr, ptr %14, align 8
  %72 = icmp ne ptr %71, null
  br i1 %72, label %73, label %78

73:                                               ; preds = %70
  %74 = load ptr, ptr %14, align 8
  %75 = getelementptr inbounds nuw %struct.persist_conn_t, ptr %74, i32 0, i32 9
  %76 = load i32, ptr %75, align 4
  %77 = icmp eq i32 %76, -1
  br i1 %77, label %78, label %79

78:                                               ; preds = %73, %70
  store i32 4, ptr %16, align 4
  br label %88

79:                                               ; preds = %73, %63
  %80 = load ptr, ptr %15, align 8
  %81 = load ptr, ptr %7, align 8
  %82 = getelementptr inbounds nuw %struct.job_record, ptr %81, i32 0, i32 53
  %83 = load i32, ptr %82, align 8
  %84 = load i16, ptr %8, align 2
  %85 = load i16, ptr %9, align 2
  %86 = load i32, ptr %10, align 4
  %87 = call i32 @_persist_fed_job_cancel(ptr noundef %80, i32 noundef %83, i16 noundef zeroext %84, i16 noundef zeroext %85, i32 noundef %86)
  store i32 0, ptr %16, align 4
  br label %88

88:                                               ; preds = %78, %60, %79
  call void @llvm.lifetime.end.p0(i64 8, ptr %15) #9
  %89 = load i32, ptr %16, align 4
  switch i32 %89, label %98 [
    i32 0, label %90
    i32 4, label %92
  ]

90:                                               ; preds = %88
  br label %91

91:                                               ; preds = %90, %48, %44
  br label %92

92:                                               ; preds = %91, %88
  %93 = load i64, ptr %13, align 8
  %94 = lshr i64 %93, 1
  store i64 %94, ptr %13, align 8
  %95 = load i32, ptr %12, align 4
  %96 = add nsw i32 %95, 1
  store i32 %96, ptr %12, align 4
  br label %41, !llvm.loop !33

97:                                               ; preds = %41
  store i32 0, ptr %6, align 4
  store i32 1, ptr %16, align 4
  br label %98

98:                                               ; preds = %97, %88
  call void @llvm.lifetime.end.p0(i64 8, ptr %14) #9
  call void @llvm.lifetime.end.p0(i64 8, ptr %13) #9
  call void @llvm.lifetime.end.p0(i64 4, ptr %12) #9
  %99 = load i32, ptr %6, align 4
  ret i32 %99
}

; Function Attrs: nounwind uwtable
define internal i32 @_is_fed_job(ptr noundef %0, ptr noundef %1) #0 {
  %3 = alloca i32, align 4
  %4 = alloca ptr, align 8
  %5 = alloca ptr, align 8
  store ptr %0, ptr %4, align 8
  store ptr %1, ptr %5, align 8
  %6 = load ptr, ptr @fed_mgr_cluster_rec, align 8
  %7 = icmp ne ptr %6, null
  br i1 %7, label %9, label %8

8:                                                ; preds = %2
  store i32 0, ptr %3, align 4
  br label %32

9:                                                ; preds = %2
  %10 = load ptr, ptr %4, align 8
  %11 = getelementptr inbounds nuw %struct.job_record, ptr %10, i32 0, i32 39
  %12 = load ptr, ptr %11, align 8
  %13 = icmp ne ptr %12, null
  br i1 %13, label %14, label %21

14:                                               ; preds = %9
  %15 = load ptr, ptr %4, align 8
  %16 = getelementptr inbounds nuw %struct.job_record, ptr %15, i32 0, i32 53
  %17 = load i32, ptr %16, align 8
  %18 = call i32 @fed_mgr_get_cluster_id(i32 noundef %17)
  %19 = load ptr, ptr %5, align 8
  store i32 %18, ptr %19, align 4
  %20 = icmp ne i32 %18, 0
  br i1 %20, label %31, label %21

21:                                               ; preds = %14, %9
  br label %22

22:                                               ; preds = %21
  br label %23

23:                                               ; preds = %22
  %24 = call i32 @get_log_level()
  %25 = icmp sge i32 %24, 6
  br i1 %25, label %26, label %28

26:                                               ; preds = %23
  %27 = load ptr, ptr %4, align 8
  call void (i32, ptr, ...) @log_var(i32 noundef 6, ptr noundef @.str.183, ptr noundef %27)
  br label %28

28:                                               ; preds = %26, %23
  br label %29

29:                                               ; preds = %28
  br label %30

30:                                               ; preds = %29
  store i32 0, ptr %3, align 4
  br label %32

31:                                               ; preds = %14
  store i32 1, ptr %3, align 4
  br label %32

32:                                               ; preds = %31, %30, %8
  %33 = load i32, ptr %3, align 4
  ret i32 %33
}

; Function Attrs: nounwind uwtable
define dso_local i32 @fed_mgr_job_cancel(ptr noundef %0, i16 noundef zeroext %1, i16 noundef zeroext %2, i32 noundef %3, i1 noundef zeroext %4) #0 {
  %6 = alloca i32, align 4
  %7 = alloca ptr, align 8
  %8 = alloca i16, align 2
  %9 = alloca i16, align 2
  %10 = alloca i32, align 4
  %11 = alloca i8, align 1
  %12 = alloca i32, align 4
  %13 = alloca i32, align 4
  store ptr %0, ptr %7, align 8
  store i16 %1, ptr %8, align 2
  store i16 %2, ptr %9, align 2
  store i32 %3, ptr %10, align 4
  %14 = zext i1 %4 to i8
  store i8 %14, ptr %11, align 1
  call void @llvm.lifetime.start.p0(i64 4, ptr %12) #9
  %15 = load ptr, ptr %7, align 8
  %16 = call i32 @_is_fed_job(ptr noundef %15, ptr noundef %12)
  %17 = icmp ne i32 %16, 0
  br i1 %17, label %19, label %18

18:                                               ; preds = %5
  store i32 0, ptr %6, align 4
  store i32 1, ptr %13, align 4
  br label %43

19:                                               ; preds = %5
  br label %20

20:                                               ; preds = %19
  %21 = load i64, ptr getelementptr inbounds nuw (%struct.slurm_conf_t, ptr @slurm_conf, i32 0, i32 42), align 8
  %22 = and i64 %21, 281474976710656
  %23 = icmp ne i64 %22, 0
  br i1 %23, label %24, label %33

24:                                               ; preds = %20
  br label %25

25:                                               ; preds = %24
  %26 = call i32 @get_log_level()
  %27 = icmp sge i32 %26, 4
  br i1 %27, label %28, label %30

28:                                               ; preds = %25
  %29 = load ptr, ptr %7, align 8
  call void (i32, ptr, ...) @log_var(i32 noundef 4, ptr noundef @.str.62, ptr noundef %29)
  br label %30

30:                                               ; preds = %28, %25
  br label %31

31:                                               ; preds = %30
  br label %32

32:                                               ; preds = %31
  br label %33

33:                                               ; preds = %32, %20
  br label %34

34:                                               ; preds = %33
  br label %35

35:                                               ; preds = %34
  %36 = load ptr, ptr %7, align 8
  %37 = load i16, ptr %8, align 2
  %38 = load i16, ptr %9, align 2
  %39 = load i32, ptr %10, align 4
  %40 = load i8, ptr %11, align 1, !range !11, !noundef !12
  %41 = trunc i8 %40 to i1
  %42 = call i32 @_cancel_sibling_jobs(ptr noundef %36, i16 noundef zeroext %37, i16 noundef zeroext %38, i32 noundef %39, i1 noundef zeroext %41)
  store i32 0, ptr %6, align 4
  store i32 1, ptr %13, align 4
  br label %43

43:                                               ; preds = %35, %18
  call void @llvm.lifetime.end.p0(i64 4, ptr %12) #9
  %44 = load i32, ptr %6, align 4
  ret i32 %44
}