; Function Attrs: nounwind uwtable
define dso_local noundef i32 @fed_mgr_job_cancel(ptr noundef %0, i16 noundef zeroext %1, i16 noundef zeroext %2, i32 noundef %3, i1 noundef zeroext %4) local_unnamed_addr #0 {
  %6 = alloca i32, align 4
  %7 = load ptr, ptr @fed_mgr_cluster_rec, align 8
  %.not.i = icmp eq ptr %7, null
  br i1 %.not.i, label %_cancel_sibling_jobs.exit, label %8

8:                                                ; preds = %5
  %9 = getelementptr inbounds nuw i8, ptr %0, i64 280
  %10 = load ptr, ptr %9, align 8
  %.not4.i = icmp eq ptr %10, null
  br i1 %.not4.i, label %14, label %11

11:                                               ; preds = %8
  %12 = getelementptr inbounds nuw i8, ptr %0, i64 392
  %13 = load i32, ptr %12, align 8
  %.not5.i = icmp ult i32 %13, 67108864
  br i1 %.not5.i, label %14, label %_is_fed_job.exit

14:                                               ; preds = %11, %8
  %15 = tail call i32 @get_log_level() #16
  %16 = icmp sgt i32 %15, 5
  br i1 %16, label %17, label %_cancel_sibling_jobs.exit

17:                                               ; preds = %14
  tail call void (i32, ptr, ...) @log_var(i32 noundef 6, ptr noundef nonnull @.str.183, ptr noundef nonnull %0) #16
  br label %_cancel_sibling_jobs.exit

_is_fed_job.exit:                                 ; preds = %11
  %18 = load i64, ptr getelementptr inbounds nuw (i8, ptr @slurm_conf, i64 320), align 8
  %19 = and i64 %18, 281474976710656
  %.not7 = icmp eq i64 %19, 0
  br i1 %.not7, label %24, label %20

20:                                               ; preds = %_is_fed_job.exit
  %21 = tail call i32 @get_log_level() #16
  %22 = icmp sgt i32 %21, 3
  br i1 %22, label %23, label %24

23:                                               ; preds = %20
  tail call void (i32, ptr, ...) @log_var(i32 noundef 4, ptr noundef nonnull @.str.62, ptr noundef nonnull %0) #16
  br label %24

24:                                               ; preds = %20, %23, %_is_fed_job.exit
  %25 = load ptr, ptr %9, align 8
  br i1 %4, label %26, label %.thread.i

26:                                               ; preds = %24
  %27 = getelementptr inbounds nuw i8, ptr %25, i64 32
  %28 = or i16 %2, 128
  %.025.i = load i64, ptr %27, align 8
  %.not32.i = icmp eq i64 %.025.i, 0
  br i1 %.not32.i, label %_cancel_sibling_jobs.exit, label %.lr.ph.split.us.i

.thread.i:                                        ; preds = %24
  %29 = getelementptr inbounds nuw i8, ptr %25, i64 16
  %.02538.i = load i64, ptr %29, align 8
  %.not3239.i = icmp eq i64 %.02538.i, 0
  br i1 %.not3239.i, label %_cancel_sibling_jobs.exit, label %.lr.ph.thread.i

.lr.ph.thread.i:                                  ; preds = %.thread.i
  %30 = and i16 %2, -129
  br label %.lr.ph.split.i

.lr.ph.split.us.i:                                ; preds = %26, %53
  %.02434.us.i = phi i32 [ %55, %53 ], [ 1, %26 ]
  %.133.us.i = phi i64 [ %54, %53 ], [ %.025.i, %26 ]
  %31 = and i64 %.133.us.i, 1
  %.not28.us.i = icmp eq i64 %31, 0
  br i1 %.not28.us.i, label %53, label %32

32:                                               ; preds = %.lr.ph.split.us.i
  %33 = load ptr, ptr @fed_mgr_cluster_rec, align 8
  %34 = getelementptr inbounds nuw i8, ptr %33, i64 192
  %35 = load i32, ptr %34, align 8
  %.not29.us.i = icmp eq i32 %.02434.us.i, %35
  br i1 %.not29.us.i, label %53, label %36

36:                                               ; preds = %32
  call void @llvm.lifetime.start.p0(i64 4, ptr nonnull %6) #16
  store i32 %.02434.us.i, ptr %6, align 4
  %37 = load ptr, ptr @fed_mgr_fed_rec, align 8
  %38 = getelementptr inbounds nuw i8, ptr %37, i64 16
  %39 = load ptr, ptr %38, align 8
  %40 = call ptr @list_find_first(ptr noundef %39, ptr noundef nonnull @_find_sibling_by_id, ptr noundef nonnull %6) #16
  call void @llvm.lifetime.end.p0(i64 4, ptr nonnull %6) #16
  %.not30.us.i = icmp eq ptr %40, null
  br i1 %.not30.us.i, label %51, label %41

41:                                               ; preds = %36
  %42 = getelementptr inbounds nuw i8, ptr %40, i64 216
  %43 = load ptr, ptr %42, align 8
  %.not31.us.i = icmp eq ptr %43, null
  br i1 %.not31.us.i, label %53, label %44

44:                                               ; preds = %41
  %45 = getelementptr inbounds nuw i8, ptr %43, i64 60
  %46 = load i32, ptr %45, align 4
  %47 = icmp eq i32 %46, -1
  br i1 %47, label %53, label %48

48:                                               ; preds = %44
  %49 = load i32, ptr %12, align 8
  %50 = call fastcc i32 @_persist_fed_job_cancel(ptr noundef %40, i32 noundef %49, i16 noundef zeroext %1, i16 noundef zeroext %28, i32 noundef %3)
  br label %53

51:                                               ; preds = %36
  %52 = call i32 (ptr, ...) @error(ptr noundef nonnull @.str.186, i32 noundef %.02434.us.i) #16
  br label %53

53:                                               ; preds = %51, %48, %44, %41, %32, %.lr.ph.split.us.i
  %54 = lshr i64 %.133.us.i, 1
  %55 = add nuw nsw i32 %.02434.us.i, 1
  %.not.us.i = icmp ult i64 %.133.us.i, 2
  br i1 %.not.us.i, label %_cancel_sibling_jobs.exit, label %.lr.ph.split.us.i, !llvm.loop !39

.lr.ph.split.i:                                   ; preds = %71, %.lr.ph.thread.i
  %.02434.i = phi i32 [ %73, %71 ], [ 1, %.lr.ph.thread.i ]
  %.133.i = phi i64 [ %72, %71 ], [ %.02538.i, %.lr.ph.thread.i ]
  %56 = and i64 %.133.i, 1
  %.not28.i = icmp eq i64 %56, 0
  br i1 %.not28.i, label %71, label %57

57:                                               ; preds = %.lr.ph.split.i
  %58 = load ptr, ptr @fed_mgr_cluster_rec, align 8
  %59 = getelementptr inbounds nuw i8, ptr %58, i64 192
  %60 = load i32, ptr %59, align 8
  %.not29.i = icmp eq i32 %.02434.i, %60
  br i1 %.not29.i, label %71, label %61

61:                                               ; preds = %57
  call void @llvm.lifetime.start.p0(i64 4, ptr nonnull %6) #16
  store i32 %.02434.i, ptr %6, align 4
  %62 = load ptr, ptr @fed_mgr_fed_rec, align 8
  %63 = getelementptr inbounds nuw i8, ptr %62, i64 16
  %64 = load ptr, ptr %63, align 8
  %65 = call ptr @list_find_first(ptr noundef %64, ptr noundef nonnull @_find_sibling_by_id, ptr noundef nonnull %6) #16
  call void @llvm.lifetime.end.p0(i64 4, ptr nonnull %6) #16
  %.not30.i = icmp eq ptr %65, null
  br i1 %.not30.i, label %66, label %68

66:                                               ; preds = %61
  %67 = call i32 (ptr, ...) @error(ptr noundef nonnull @.str.186, i32 noundef %.02434.i) #16
  br label %71

68:                                               ; preds = %61
  %69 = load i32, ptr %12, align 8
  %70 = call fastcc i32 @_persist_fed_job_cancel(ptr noundef %65, i32 noundef %69, i16 noundef zeroext %1, i16 noundef zeroext %30, i32 noundef %3)
  br label %71

71:                                               ; preds = %68, %66, %57, %.lr.ph.split.i
  %72 = lshr i64 %.133.i, 1
  %73 = add nuw nsw i32 %.02434.i, 1
  %.not.i8 = icmp ult i64 %.133.i, 2
  br i1 %.not.i8, label %_cancel_sibling_jobs.exit, label %.lr.ph.split.i, !llvm.loop !39

_cancel_sibling_jobs.exit:                        ; preds = %71, %53, %14, %17, %5, %.thread.i, %26
  ret i32 0
}